(lp0
S'all#count'
p1
aS'session#count'
p2
aS'seek_video#num'
p3
aS'play_video#num'
p4
aS'pause_video#num'
p5
aS'stop_video#num'
p6
aS'load_video#num'
p7
aS'problem_get#num'
p8
aS'problem_check#num'
p9
aS'problem_save#num'
p10
aS'reset_problem#num'
p11
aS'problem_check_correct#num'
p12
aS'problem_check_incorrect#num'
p13
aS'create_thread#num'
p14
aS'create_comment#num'
p15
aS'delete_thread#num'
p16
aS'delete_comment#num'
p17
aS'click_info#num'
p18
aS'click_courseware#num'
p19
aS'click_about#num'
p20
aS'click_forum#num'
p21
aS'click_progress#num'
p22
aS'close_courseware#num'
p23
a.